; Function Attrs: mustprogress nounwind uwtable
define hidden void @_ZN5ceres8internal21RefinedSparseCholeskyD2Ev(ptr noundef nonnull align 8 captures(none) dereferenceable(32) %0) unnamed_addr #10 align 2 personality ptr @__gxx_personality_v0 {
  %2 = getelementptr inbounds nuw i8, ptr %0, i64 16
  %3 = load ptr, ptr %2, align 8, !tbaa !40
  %.not.i = icmp eq ptr %3, null
  br i1 %.not.i, label %_ZNSt10unique_ptrIN5ceres8internal22SparseIterativeRefinerESt14default_deleteIS2_EED2Ev.exit, label %_ZNKSt14default_deleteIN5ceres8internal22SparseIterativeRefinerEEclEPS2_.exit.i

_ZNKSt14default_deleteIN5ceres8internal22SparseIterativeRefinerEEclEPS2_.exit.i: ; preds = %1
  %4 = load ptr, ptr %3, align 8, !tbaa !35
  %5 = getelementptr inbounds nuw i8, ptr %4, i64 8
  %6 = load ptr, ptr %5, align 8
  tail call void %6(ptr noundef nonnull align 8 dereferenceable(64) %3) #15
  br label %_ZNSt10unique_ptrIN5ceres8internal22SparseIterativeRefinerESt14default_deleteIS2_EED2Ev.exit

_ZNSt10unique_ptrIN5ceres8internal22SparseIterativeRefinerESt14default_deleteIS2_EED2Ev.exit: ; preds = %1, %_ZNKSt14default_deleteIN5ceres8internal22SparseIterativeRefinerEEclEPS2_.exit.i
  store ptr null, ptr %2, align 8, !tbaa !40
  %7 = getelementptr inbounds nuw i8, ptr %0, i64 8
  %8 = load ptr, ptr %7, align 8, !tbaa !27
  %.not.i1 = icmp eq ptr %8, null
  br i1 %.not.i1, label %_ZNSt10unique_ptrIN5ceres8internal14SparseCholeskyESt14default_deleteIS2_EED2Ev.exit, label %_ZNKSt14default_deleteIN5ceres8internal14SparseCholeskyEEclEPS2_.exit.i

_ZNKSt14default_deleteIN5ceres8internal14SparseCholeskyEEclEPS2_.exit.i: ; preds = %_ZNSt10unique_ptrIN5ceres8internal22SparseIterativeRefinerESt14default_deleteIS2_EED2Ev.exit
  %9 = load ptr, ptr %8, align 8, !tbaa !35
  %10 = getelementptr inbounds nuw i8, ptr %9, i64 8
  %11 = load ptr, ptr %10, align 8
  tail call void %11(ptr noundef nonnull align 8 dereferenceable(8) %8) #15
  br label %_ZNSt10unique_ptrIN5ceres8internal14SparseCholeskyESt14default_deleteIS2_EED2Ev.exit

_ZNSt10unique_ptrIN5ceres8internal14SparseCholeskyESt14default_deleteIS2_EED2Ev.exit: ; preds = %_ZNSt10unique_ptrIN5ceres8internal22SparseIterativeRefinerESt14default_deleteIS2_EED2Ev.exit, %_ZNKSt14default_deleteIN5ceres8internal14SparseCholeskyEEclEPS2_.exit.i
  store ptr null, ptr %7, align 8, !tbaa !27
  ret void
}